(lp0
(dp1
a(dp2
I3
S'31'
p3
sa(dp4
I3
S'32'
p5
sa(dp6
I3
S'33'
p7
sa(dp8
I3
S'34'
p9
sa(dp10
I3
S'35'
p11
sa(dp12
I2
S'21'
p13
sa(dp14
I2
g13
sI3
g3
sa(dp15
I2
g13
sI3
g5
sa(dp16
I2
g13
sI3
g7
sa(dp17
I2
g13
sI3
g9
sa(dp18
I2
g13
sI3
g11
sa(dp19
I2
S'22'
p20
sa(dp21
I2
g20
sI3
g3
sa(dp22
I2
g20
sI3
g5
sa(dp23
I2
g20
sI3
g7
sa(dp24
I2
g20
sI3
g9
sa(dp25
I2
g20
sI3
g11
sa(dp26
I2
S'23'
p27
sa(dp28
I2
g27
sI3
g3
sa(dp29
I2
g27
sI3
g5
sa(dp30
I2
g27
sI3
g7
sa(dp31
I2
g27
sI3
g9
sa(dp32
I2
g27
sI3
g11
sa(dp33
I2
S'24'
p34
sa(dp35
I2
g34
sI3
g3
sa(dp36
I2
g34
sI3
g5
sa(dp37
I2
g34
sI3
g7
sa(dp38
I2
g34
sI3
g9
sa(dp39
I2
g34
sI3
g11
sa(dp40
I2
S'25'
p41
sa(dp42
I2
g41
sI3
g3
sa(dp43
I2
g41
sI3
g5
sa(dp44
I2
g41
sI3
g7
sa(dp45
I2
g41
sI3
g9
sa(dp46
I2
g41
sI3
g11
sa.