(dp0
(I2
S'23'
p1
tp2
S'HH'
p3
s(I3
S'34'
p4
tp5
g3
s(I2
S'22'
p6
tp7
g3
s(I3
S'31'
p8
tp9
g3
s(I2
S'25'
p10
tp11
g3
s(I3
S'33'
p12
tp13
g3
s(I2
S'24'
p14
tp15
g3
s(I3
S'32'
p16
tp17
g3
s(I2
S'21'
p18
tp19
g3
s(I3
S'35'
p20
tp21
g3
s.