(lp0
(S'_'
p1
g1
g1
g1
g1
g1
tp2
a(g1
g1
g1
S'31'
p3
g1
g1
tp4
a(g1
g1
g1
S'32'
p5
g1
g1
tp6
a(g1
g1
g1
S'33'
p7
g1
g1
tp8
a(g1
g1
g1
S'34'
p9
g1
g1
tp10
a(g1
g1
g1
S'35'
p11
g1
g1
tp12
a(g1
g1
S'21'
p13
g1
g1
g1
tp14
a(g1
g1
g13
g3
g1
g1
tp15
a(g1
g1
g13
g5
g1
g1
tp16
a(g1
g1
g13
g7
g1
g1
tp17
a(g1
g1
g13
g9
g1
g1
tp18
a(g1
g1
g13
g11
g1
g1
tp19
a(g1
g1
S'22'
p20
g1
g1
g1
tp21
a(g1
g1
g20
g3
g1
g1
tp22
a(g1
g1
g20
g5
g1
g1
tp23
a(g1
g1
g20
g7
g1
g1
tp24
a(g1
g1
g20
g9
g1
g1
tp25
a(g1
g1
g20
g11
g1
g1
tp26
a(g1
g1
S'23'
p27
g1
g1
g1
tp28
a(g1
g1
g27
g3
g1
g1
tp29
a(g1
g1
g27
g5
g1
g1
tp30
a(g1
g1
g27
g7
g1
g1
tp31
a(g1
g1
g27
g9
g1
g1
tp32
a(g1
g1
g27
g11
g1
g1
tp33
a(g1
g1
S'24'
p34
g1
g1
g1
tp35
a(g1
g1
g34
g3
g1
g1
tp36
a(g1
g1
g34
g5
g1
g1
tp37
a(g1
g1
g34
g7
g1
g1
tp38
a(g1
g1
g34
g9
g1
g1
tp39
a(g1
g1
g34
g11
g1
g1
tp40
a(g1
g1
S'25'
p41
g1
g1
g1
tp42
a(g1
g1
g41
g3
g1
g1
tp43
a(g1
g1
g41
g5
g1
g1
tp44
a(g1
g1
g41
g7
g1
g1
tp45
a(g1
g1
g41
g9
g1
g1
tp46
a(g1
g1
g41
g11
g1
g1
tp47
a.