(lp0
(dp1
S'3'
p2
I5
sS'2'
p3
I7
sa(dp4
g3
I9
sS'4'
p5
I6
sa(dp6
g3
I8
sg5
I2
sa(dp7
g3
I8
sg5
I1
sa(dp8
g3
I6
sg5
I1
sa(dp9
g3
I4
sg5
I1
sa(dp10
S'1'
p11
I7
sg2
I7
sa(dp12
g11
I11
sS'5'
p13
I4
sg5
I8
sa(dp14
g11
I12
sg13
I1
sg5
I4
sa(dp15
g11
I7
sg13
I1
sg5
I2
sa(dp16
g11
I8
sg13
I1
sg5
I1
sa(dp17
g11
I5
sg13
I1
sg5
I1
sa(dp18
g11
I2
sg2
I8
sa(dp19
g11
I4
sg13
I1
sg5
I12
sa(dp20
g11
I3
sg13
I1
sg5
I3
sa(dp21
g11
I2
sg13
I1
sg5
I2
sa(dp22
g11
I3
sg13
I1
sg5
I1
sa(dp23
g11
I2
sg13
I1
sg5
I1
sa(dp24
g11
I1
sg2
I8
sa(dp25
g11
I2
sg13
I1
sg5
I7
sa(dp26
g11
I2
sg13
I1
sg5
I2
sa(dp27
g11
I1
sg13
I1
sg5
I2
sa(dp28
g11
I2
sg13
I1
sg5
I1
sa(dp29
g11
I1
sg13
I1
sg5
I1
sa(dp30
g11
I1
sg2
I4
sa(dp31
g11
I1
sg13
I1
sg5
I6
sa(dp32
g11
I1
sg13
I1
sg5
I2
sa(dp33
g11
I1
sg13
I1
sg5
I1
sa(dp34
g11
I1
sg13
I1
sg5
I1
sa(dp35
g11
I1
sg13
I1
sg5
I1
sa(dp36
g11
I1
sg2
I4
sa(dp37
g11
I1
sg13
I1
sg5
I5
sa(dp38
g11
I1
sg13
I1
sg5
I2
sa(dp39
g11
I1
sg13
I1
sg5
I1
sa(dp40
g11
I1
sg13
I1
sg5
I1
sa(dp41
g11
I1
sg13
I1
sg5
I1
sa.