(lp0
(dp1
S'3'
p2
I201
sS'2'
p3
I200
sa(dp4
S'2'
p5
I9
sS'4'
p6
I6
sa(dp7
g5
I8
sg6
I2
sa(dp8
g5
I8
sg6
I1
sa(dp9
g5
I6
sg6
I1
sa(dp10
g5
I4
sg6
I1
sa(dp11
S'1'
p12
I7
sS'3'
p13
I7
sa(dp14
g12
I11
sS'5'
p15
I4
sg6
I8
sa(dp16
g12
I12
sg15
I1
sg6
I4
sa(dp17
g12
I7
sg15
I1
sg6
I2
sa(dp18
g12
I8
sg15
I1
sg6
I1
sa(dp19
g12
I5
sg15
I1
sg6
I1
sa(dp20
g12
I2
sg13
I8
sa(dp21
g12
I4
sg15
I1
sg6
I12
sa(dp22
g12
I3
sg15
I1
sg6
I3
sa(dp23
g12
I2
sg15
I1
sg6
I2
sa(dp24
g12
I3
sg15
I1
sg6
I1
sa(dp25
g12
I2
sg15
I1
sg6
I1
sa(dp26
g12
I1
sg13
I8
sa(dp27
g12
I2
sg15
I1
sg6
I7
sa(dp28
g12
I2
sg15
I1
sg6
I2
sa(dp29
g12
I1
sg15
I1
sg6
I2
sa(dp30
g12
I2
sg15
I1
sg6
I1
sa(dp31
g12
I1
sg15
I1
sg6
I1
sa(dp32
g12
I1
sg13
I4
sa(dp33
g12
I1
sg15
I1
sg6
I6
sa(dp34
g12
I1
sg15
I1
sg6
I2
sa(dp35
g12
I1
sg15
I1
sg6
I1
sa(dp36
g12
I1
sg15
I1
sg6
I1
sa(dp37
g12
I1
sg15
I1
sg6
I1
sa(dp38
g12
I1
sg13
I4
sa(dp39
g12
I1
sg15
I1
sg6
I5
sa(dp40
g12
I1
sg15
I1
sg6
I2
sa(dp41
g12
I1
sg15
I1
sg6
I1
sa(dp42
g12
I1
sg15
I1
sg6
I1
sa(dp43
g12
I1
sg15
I1
sg6
I1
sa.